target datalayout = "e-m:e-p270:32:32-p271:32:32-p272:64:64-i64:64-i128:128-f80:128-n8:16:32:64-S128"
target triple = "x86_64-pc-linux-gnu"

%struct.RString = type { %struct.RBasic, i64, %union.anon }
%struct.RBasic = type { i64, i64 }
%union.anon = type { %struct.anon }
%struct.anon = type { ptr, %union.anon.0 }
%union.anon.0 = type { i64 }
%struct.dump_arg = type { i64, i64, ptr, ptr, ptr, ptr, i64 }

@rb_eTypeError = external global i64, align 8
@.str.39 = private unnamed_addr constant [21 x i8] c"long too big to dump\00", align 1

; Function Attrs: inlinehint nounwind sspstrong willreturn memory(read) uwtable
define internal i64 @RSTRING_LEN(i64 noundef %0) #7 {
  %2 = alloca i64, align 8
  store i64 %0, ptr %2, align 8, !tbaa !7
  %3 = load i64, ptr %2, align 8, !tbaa !7
  %4 = inttoptr i64 %3 to ptr
  %5 = getelementptr inbounds nuw %struct.RString, ptr %4, i32 0, i32 1
  %6 = load i64, ptr %5, align 8, !tbaa !63
  ret i64 %6
}

; Function Attrs: nounwind sspstrong uwtable
define internal void @w_nbyte(ptr noundef %0, i64 noundef %1, ptr noundef %2) #0 {
  %4 = alloca ptr, align 8
  %5 = alloca i64, align 8
  %6 = alloca ptr, align 8
  %7 = alloca i64, align 8
  store ptr %0, ptr %4, align 8, !tbaa !20
  store i64 %1, ptr %5, align 8, !tbaa !7
  store ptr %2, ptr %6, align 8, !tbaa !39
  call void @llvm.lifetime.start.p0(i64 8, ptr %7) #23
  %8 = load ptr, ptr %6, align 8, !tbaa !39
  %9 = getelementptr inbounds nuw %struct.dump_arg, ptr %8, i32 0, i32 0
  %10 = load i64, ptr %9, align 8, !tbaa !48
  store i64 %10, ptr %7, align 8, !tbaa !7
  %11 = load i64, ptr %7, align 8, !tbaa !7
  %12 = load ptr, ptr %4, align 8, !tbaa !20
  %13 = load i64, ptr %5, align 8, !tbaa !7
  %14 = call i64 @rb_str_cat(i64 noundef %11, ptr noundef %12, i64 noundef %13)
  %15 = load ptr, ptr %6, align 8, !tbaa !39
  %16 = getelementptr inbounds nuw %struct.dump_arg, ptr %15, i32 0, i32 1
  %17 = load i64, ptr %16, align 8, !tbaa !41
  %18 = icmp ne i64 %17, 0
  br i1 %18, label %19, label %31

19:                                               ; preds = %3
  %20 = load i64, ptr %7, align 8, !tbaa !7
  %21 = call i64 @RSTRING_LEN(i64 noundef %20) #27
  %22 = icmp sge i64 %21, 8192
  br i1 %22, label %23, label %31

23:                                               ; preds = %19
  %24 = load ptr, ptr %6, align 8, !tbaa !39
  %25 = getelementptr inbounds nuw %struct.dump_arg, ptr %24, i32 0, i32 1
  %26 = load i64, ptr %25, align 8, !tbaa !41
  %27 = load i64, ptr %7, align 8, !tbaa !7
  %28 = call i64 @rb_io_write(i64 noundef %26, i64 noundef %27)
  %29 = load i64, ptr %7, align 8, !tbaa !7
  %30 = call i64 @rb_str_resize(i64 noundef %29, i64 noundef 0)
  br label %31

31:                                               ; preds = %23, %19, %3
  call void @llvm.lifetime.end.p0(i64 8, ptr %7) #23
  ret void
}

; Function Attrs: nounwind sspstrong uwtable
define hidden i32 @ruby_marshal_write_long(i64 noundef %0, ptr noundef %1) #0 {
  %3 = alloca i32, align 4
  %4 = alloca i64, align 8
  %5 = alloca ptr, align 8
  %6 = alloca i32, align 4
  %7 = alloca i32, align 4
  store i64 %0, ptr %4, align 8, !tbaa !7
  store ptr %1, ptr %5, align 8, !tbaa !20
  call void @llvm.lifetime.start.p0(i64 4, ptr %6) #23
  %8 = load i64, ptr %4, align 8, !tbaa !7
  %9 = ashr i64 %8, 31
  %10 = icmp eq i64 %9, 0
  br i1 %10, label %16, label %11

11:                                               ; preds = %2
  %12 = load i64, ptr %4, align 8, !tbaa !7
  %13 = ashr i64 %12, 31
  %14 = icmp eq i64 %13, -1
  br i1 %14, label %16, label %15

15:                                               ; preds = %11
  store i32 -1, ptr %3, align 4
  store i32 1, ptr %7, align 4
  br label %84

16:                                               ; preds = %11, %2
  %17 = load i64, ptr %4, align 8, !tbaa !7
  %18 = icmp eq i64 %17, 0
  br i1 %18, label %19, label %22

19:                                               ; preds = %16
  %20 = load ptr, ptr %5, align 8, !tbaa !20
  %21 = getelementptr i8, ptr %20, i64 0
  store i8 0, ptr %21, align 1, !tbaa !24
  store i32 1, ptr %3, align 4
  store i32 1, ptr %7, align 4
  br label %84

22:                                               ; preds = %16
  %23 = load i64, ptr %4, align 8, !tbaa !7
  %24 = icmp slt i64 0, %23
  br i1 %24, label %25, label %34

25:                                               ; preds = %22
  %26 = load i64, ptr %4, align 8, !tbaa !7
  %27 = icmp slt i64 %26, 123
  br i1 %27, label %28, label %34

28:                                               ; preds = %25
  %29 = load i64, ptr %4, align 8, !tbaa !7
  %30 = add i64 %29, 5
  %31 = trunc i64 %30 to i8
  %32 = load ptr, ptr %5, align 8, !tbaa !20
  %33 = getelementptr i8, ptr %32, i64 0
  store i8 %31, ptr %33, align 1, !tbaa !24
  store i32 1, ptr %3, align 4
  store i32 1, ptr %7, align 4
  br label %84

34:                                               ; preds = %25, %22
  %35 = load i64, ptr %4, align 8, !tbaa !7
  %36 = icmp slt i64 -124, %35
  br i1 %36, label %37, label %47

37:                                               ; preds = %34
  %38 = load i64, ptr %4, align 8, !tbaa !7
  %39 = icmp slt i64 %38, 0
  br i1 %39, label %40, label %47

40:                                               ; preds = %37
  %41 = load i64, ptr %4, align 8, !tbaa !7
  %42 = sub i64 %41, 5
  %43 = and i64 %42, 255
  %44 = trunc i64 %43 to i8
  %45 = load ptr, ptr %5, align 8, !tbaa !20
  %46 = getelementptr i8, ptr %45, i64 0
  store i8 %44, ptr %46, align 1, !tbaa !24
  store i32 1, ptr %3, align 4
  store i32 1, ptr %7, align 4
  br label %84

47:                                               ; preds = %37, %34
  store i32 1, ptr %6, align 4, !tbaa !22
  br label %48

48:                                               ; preds = %78, %47
  %49 = load i32, ptr %6, align 4, !tbaa !22
  %50 = icmp slt i32 %49, 9
  br i1 %50, label %51, label %81

51:                                               ; preds = %48
  %52 = load i64, ptr %4, align 8, !tbaa !7
  %53 = and i64 %52, 255
  %54 = trunc i64 %53 to i8
  %55 = load ptr, ptr %5, align 8, !tbaa !20
  %56 = load i32, ptr %6, align 4, !tbaa !22
  %57 = sext i32 %56 to i64
  %58 = getelementptr i8, ptr %55, i64 %57
  store i8 %54, ptr %58, align 1, !tbaa !24
  %59 = load i64, ptr %4, align 8, !tbaa !7
  %60 = ashr i64 %59, 8
  store i64 %60, ptr %4, align 8, !tbaa !7
  %61 = load i64, ptr %4, align 8, !tbaa !7
  %62 = icmp eq i64 %61, 0
  br i1 %62, label %63, label %68

63:                                               ; preds = %51
  %64 = load i32, ptr %6, align 4, !tbaa !22
  %65 = trunc i32 %64 to i8
  %66 = load ptr, ptr %5, align 8, !tbaa !20
  %67 = getelementptr i8, ptr %66, i64 0
  store i8 %65, ptr %67, align 1, !tbaa !24
  br label %81

68:                                               ; preds = %51
  %69 = load i64, ptr %4, align 8, !tbaa !7
  %70 = icmp eq i64 %69, -1
  br i1 %70, label %71, label %77

71:                                               ; preds = %68
  %72 = load i32, ptr %6, align 4, !tbaa !22
  %73 = sub i32 0, %72
  %74 = trunc i32 %73 to i8
  %75 = load ptr, ptr %5, align 8, !tbaa !20
  %76 = getelementptr i8, ptr %75, i64 0
  store i8 %74, ptr %76, align 1, !tbaa !24
  br label %81

77:                                               ; preds = %68
  br label %78

78:                                               ; preds = %77
  %79 = load i32, ptr %6, align 4, !tbaa !22
  %80 = add i32 %79, 1
  store i32 %80, ptr %6, align 4, !tbaa !22
  br label %48, !llvm.loop !25

81:                                               ; preds = %71, %63, %48
  %82 = load i32, ptr %6, align 4, !tbaa !22
  %83 = add i32 %82, 1
  store i32 %83, ptr %3, align 4
  store i32 1, ptr %7, align 4
  br label %84

84:                                               ; preds = %81, %40, %28, %19, %15
  call void @llvm.lifetime.end.p0(i64 4, ptr %6) #23
  %85 = load i32, ptr %3, align 4
  ret i32 %85
}

; Function Attrs: nounwind sspstrong uwtable
define internal void @w_long(i64 noundef %0, ptr noundef %1) #0 {
  %3 = alloca i64, align 8
  %4 = alloca ptr, align 8
  %5 = alloca [9 x i8], align 1
  %6 = alloca i32, align 4
  store i64 %0, ptr %3, align 8, !tbaa !7
  store ptr %1, ptr %4, align 8, !tbaa !39
  call void @llvm.lifetime.start.p0(i64 9, ptr %5) #23
  call void @llvm.lifetime.start.p0(i64 4, ptr %6) #23
  %7 = load i64, ptr %3, align 8, !tbaa !7
  %8 = getelementptr inbounds [9 x i8], ptr %5, i64 0, i64 0
  %9 = call i32 @ruby_marshal_write_long(i64 noundef %7, ptr noundef %8)
  store i32 %9, ptr %6, align 4, !tbaa !22
  %10 = load i32, ptr %6, align 4, !tbaa !22
  %11 = icmp slt i32 %10, 0
  br i1 %11, label %12, label %14

12:                                               ; preds = %2
  %13 = load i64, ptr @rb_eTypeError, align 8, !tbaa !7
  call void (i64, ptr, ...) @rb_raise(i64 noundef %13, ptr noundef @.str.39) #24
  unreachable

14:                                               ; preds = %2
  %15 = getelementptr inbounds [9 x i8], ptr %5, i64 0, i64 0
  %16 = load i32, ptr %6, align 4, !tbaa !22
  %17 = sext i32 %16 to i64
  %18 = load ptr, ptr %4, align 8, !tbaa !39
  call void @w_nbyte(ptr noundef %15, i64 noundef %17, ptr noundef %18)
  call void @llvm.lifetime.end.p0(i64 4, ptr %6) #23
  call void @llvm.lifetime.end.p0(i64 9, ptr %5) #23
  ret void
}