; Function Attrs: nounwind sspstrong uwtable
define internal fastcc void @w_long(i64 noundef %0, ptr noundef readonly captures(none) %1) unnamed_addr #0 {
  %3 = alloca [9 x i8], align 1
  call void @llvm.lifetime.start.p0(i64 9, ptr nonnull %3) #22
  %4 = add i64 %0, 2147483648
  %or.cond33.i = icmp ult i64 %4, 4294967296
  br i1 %or.cond33.i, label %5, label %ruby_marshal_write_long.exit.thread5

5:                                                ; preds = %2
  %6 = icmp eq i64 %0, 0
  br i1 %6, label %ruby_marshal_write_long.exit.thread.sink.split, label %7

7:                                                ; preds = %5
  %or.cond.i = icmp ult i64 %0, 123
  br i1 %or.cond.i, label %8, label %11

8:                                                ; preds = %7
  %9 = trunc nuw i64 %0 to i8
  %10 = add nuw nsw i8 %9, 5
  br label %ruby_marshal_write_long.exit.thread.sink.split

11:                                               ; preds = %7
  %or.cond3.i = icmp ugt i64 %0, -124
  br i1 %or.cond3.i, label %12, label %.preheader.i

12:                                               ; preds = %11
  %13 = trunc i64 %0 to i8
  %14 = add nsw i8 %13, -5
  br label %ruby_marshal_write_long.exit.thread.sink.split

.preheader.i:                                     ; preds = %11, %26
  %indvars.iv.i = phi i64 [ %indvars.iv.next.i, %26 ], [ 1, %11 ]
  %.02937.i = phi i64 [ %17, %26 ], [ %0, %11 ]
  %15 = trunc i64 %.02937.i to i8
  %16 = getelementptr i8, ptr %3, i64 %indvars.iv.i
  store i8 %15, ptr %16, align 1, !tbaa !17
  %17 = ashr i64 %.02937.i, 8
  %18 = icmp ult i64 %.02937.i, 256
  br i1 %18, label %19, label %21

19:                                               ; preds = %.preheader.i
  %20 = trunc i64 %indvars.iv.i to i8
  br label %ruby_marshal_write_long.exit

21:                                               ; preds = %.preheader.i
  %22 = icmp eq i64 %17, -1
  br i1 %22, label %23, label %26

23:                                               ; preds = %21
  %24 = trunc i64 %indvars.iv.i to i8
  %25 = sub nsw i8 0, %24
  br label %ruby_marshal_write_long.exit

26:                                               ; preds = %21
  %indvars.iv.next.i = add nuw nsw i64 %indvars.iv.i, 1
  %exitcond.not.i = icmp eq i64 %indvars.iv.next.i, 9
  br i1 %exitcond.not.i, label %ruby_marshal_write_long.exit.thread, label %.preheader.i, !llvm.loop !18

ruby_marshal_write_long.exit:                     ; preds = %19, %23
  %.sink.i = phi i8 [ %25, %23 ], [ %20, %19 ]
  %.036.ph.i = trunc i64 %indvars.iv.i to i32
  store i8 %.sink.i, ptr %3, align 1, !tbaa !17
  %27 = add nuw i64 %indvars.iv.i, 1
  %28 = icmp slt i32 %.036.ph.i, -1
  br i1 %28, label %ruby_marshal_write_long.exit.thread5, label %ruby_marshal_write_long.exit.thread

ruby_marshal_write_long.exit.thread5:             ; preds = %2, %ruby_marshal_write_long.exit
  %29 = load i64, ptr @rb_eTypeError, align 8, !tbaa !7
  tail call void (i64, ptr, ...) @rb_raise(i64 noundef %29, ptr noundef nonnull @.str.39) #23
  unreachable

ruby_marshal_write_long.exit.thread.sink.split:   ; preds = %5, %8, %12
  %.sink = phi i8 [ %14, %12 ], [ %10, %8 ], [ 0, %5 ]
  store i8 %.sink, ptr %3, align 1, !tbaa !17
  br label %ruby_marshal_write_long.exit.thread

ruby_marshal_write_long.exit.thread:              ; preds = %26, %ruby_marshal_write_long.exit.thread.sink.split, %ruby_marshal_write_long.exit
  %.028.i4 = phi i64 [ %27, %ruby_marshal_write_long.exit ], [ 1, %ruby_marshal_write_long.exit.thread.sink.split ], [ 10, %26 ]
  %30 = and i64 %.028.i4, 4294967295
  %31 = load i64, ptr %1, align 8, !tbaa !40
  %32 = call i64 @rb_str_cat(i64 noundef %31, ptr noundef nonnull %3, i64 noundef %30) #22
  %33 = getelementptr inbounds nuw i8, ptr %1, i64 8
  %34 = load i64, ptr %33, align 8, !tbaa !36
  %.not.i = icmp eq i64 %34, 0
  br i1 %.not.i, label %w_nbyte.exit, label %35

35:                                               ; preds = %ruby_marshal_write_long.exit.thread
  %36 = inttoptr i64 %31 to ptr
  %37 = getelementptr inbounds nuw i8, ptr %36, i64 16
  %38 = load i64, ptr %37, align 8, !tbaa !41
  %39 = icmp sgt i64 %38, 8191
  br i1 %39, label %40, label %w_nbyte.exit

40:                                               ; preds = %35
  %41 = call i64 @rb_io_write(i64 noundef %34, i64 noundef %31) #22
  %42 = call i64 @rb_str_resize(i64 noundef %31, i64 noundef 0) #22
  br label %w_nbyte.exit

w_nbyte.exit:                                     ; preds = %ruby_marshal_write_long.exit.thread, %35, %40
  call void @llvm.lifetime.end.p0(i64 9, ptr nonnull %3) #22
  ret void
}